target datalayout = "e-m:e-p270:32:32-p271:32:32-p272:64:64-i64:64-i128:128-f80:128-n8:16:32:64-S128"
target triple = "x86_64-pc-linux-gnu"

%struct.TValue = type { %union.Value, i8 }
%union.Value = type { ptr }
%struct.UpVal = type { ptr, i8, i8, %union.anon.4, %union.anon.5 }
%union.anon.4 = type { ptr }
%union.anon.5 = type { %struct.anon.6 }
%struct.anon.6 = type { ptr, ptr }
%struct.lua_State = type { ptr, i8, i8, i8, i8, i16, %union.StkIdRel, ptr, ptr, %union.StkIdRel, %union.StkIdRel, ptr, %union.StkIdRel, ptr, ptr, ptr, %struct.CallInfo, ptr, i64, i32, i32, i32, i32, i32, %struct.anon.3 }
%union.StkIdRel = type { ptr }
%struct.CallInfo = type { %union.StkIdRel, %union.StkIdRel, ptr, ptr, %union.anon.0, %union.anon.2, i32 }
%union.anon.0 = type { %struct.anon.1 }
%struct.anon.1 = type { ptr, i64, i64 }
%union.anon.2 = type { i32 }
%struct.anon.3 = type { i32, i32 }
%struct.GCObject = type { ptr, i8, i8 }

; Function Attrs: nounwind uwtable
define hidden void @luaF_unlinkupval(ptr noundef %0) #0 {
  %2 = alloca ptr, align 8
  store ptr %0, ptr %2, align 8, !tbaa !23
  %3 = load ptr, ptr %2, align 8, !tbaa !23
  %4 = getelementptr inbounds nuw %struct.UpVal, ptr %3, i32 0, i32 4
  %5 = getelementptr inbounds nuw %struct.anon.6, ptr %4, i32 0, i32 0
  %6 = load ptr, ptr %5, align 8, !tbaa !25
  %7 = load ptr, ptr %2, align 8, !tbaa !23
  %8 = getelementptr inbounds nuw %struct.UpVal, ptr %7, i32 0, i32 4
  %9 = getelementptr inbounds nuw %struct.anon.6, ptr %8, i32 0, i32 1
  %10 = load ptr, ptr %9, align 8, !tbaa !25
  store ptr %6, ptr %10, align 8, !tbaa !23
  %11 = load ptr, ptr %2, align 8, !tbaa !23
  %12 = getelementptr inbounds nuw %struct.UpVal, ptr %11, i32 0, i32 4
  %13 = getelementptr inbounds nuw %struct.anon.6, ptr %12, i32 0, i32 0
  %14 = load ptr, ptr %13, align 8, !tbaa !25
  %15 = icmp ne ptr %14, null
  br i1 %15, label %16, label %27

16:                                               ; preds = %1
  %17 = load ptr, ptr %2, align 8, !tbaa !23
  %18 = getelementptr inbounds nuw %struct.UpVal, ptr %17, i32 0, i32 4
  %19 = getelementptr inbounds nuw %struct.anon.6, ptr %18, i32 0, i32 1
  %20 = load ptr, ptr %19, align 8, !tbaa !25
  %21 = load ptr, ptr %2, align 8, !tbaa !23
  %22 = getelementptr inbounds nuw %struct.UpVal, ptr %21, i32 0, i32 4
  %23 = getelementptr inbounds nuw %struct.anon.6, ptr %22, i32 0, i32 0
  %24 = load ptr, ptr %23, align 8, !tbaa !25
  %25 = getelementptr inbounds nuw %struct.UpVal, ptr %24, i32 0, i32 4
  %26 = getelementptr inbounds nuw %struct.anon.6, ptr %25, i32 0, i32 1
  store ptr %20, ptr %26, align 8, !tbaa !25
  br label %27

27:                                               ; preds = %16, %1
  ret void
}

; Function Attrs: nounwind uwtable
define hidden void @luaF_closeupval(ptr noundef %0, ptr noundef %1) #0 {
  %3 = alloca ptr, align 8
  %4 = alloca ptr, align 8
  %5 = alloca ptr, align 8
  %6 = alloca ptr, align 8
  %7 = alloca ptr, align 8
  %8 = alloca ptr, align 8
  %9 = alloca ptr, align 8
  store ptr %0, ptr %3, align 8, !tbaa !4
  store ptr %1, ptr %4, align 8, !tbaa !31
  call void @llvm.lifetime.start.p0(i64 8, ptr %5) #5
  call void @llvm.lifetime.start.p0(i64 8, ptr %6) #5
  br label %10

10:                                               ; preds = %88, %2
  %11 = load ptr, ptr %3, align 8, !tbaa !4
  %12 = getelementptr inbounds nuw %struct.lua_State, ptr %11, i32 0, i32 11
  %13 = load ptr, ptr %12, align 8, !tbaa !56
  store ptr %13, ptr %5, align 8, !tbaa !23
  %14 = icmp ne ptr %13, null
  br i1 %14, label %15, label %21

15:                                               ; preds = %10
  %16 = load ptr, ptr %5, align 8, !tbaa !23
  %17 = getelementptr inbounds nuw %struct.UpVal, ptr %16, i32 0, i32 3
  %18 = load ptr, ptr %17, align 8, !tbaa !25
  store ptr %18, ptr %6, align 8, !tbaa !31
  %19 = load ptr, ptr %4, align 8, !tbaa !31
  %20 = icmp uge ptr %18, %19
  br label %21

21:                                               ; preds = %15, %10
  %22 = phi i1 [ false, %10 ], [ %20, %15 ]
  br i1 %22, label %23, label %89

23:                                               ; preds = %21
  call void @llvm.lifetime.start.p0(i64 8, ptr %7) #5
  %24 = load ptr, ptr %5, align 8, !tbaa !23
  %25 = getelementptr inbounds nuw %struct.UpVal, ptr %24, i32 0, i32 4
  store ptr %25, ptr %7, align 8, !tbaa !51
  %26 = load ptr, ptr %5, align 8, !tbaa !23
  call void @luaF_unlinkupval(ptr noundef %26)
  call void @llvm.lifetime.start.p0(i64 8, ptr %8) #5
  %27 = load ptr, ptr %7, align 8, !tbaa !51
  store ptr %27, ptr %8, align 8, !tbaa !51
  call void @llvm.lifetime.start.p0(i64 8, ptr %9) #5
  %28 = load ptr, ptr %5, align 8, !tbaa !23
  %29 = getelementptr inbounds nuw %struct.UpVal, ptr %28, i32 0, i32 3
  %30 = load ptr, ptr %29, align 8, !tbaa !25
  store ptr %30, ptr %9, align 8, !tbaa !51
  %31 = load ptr, ptr %8, align 8, !tbaa !51
  %32 = getelementptr inbounds nuw %struct.TValue, ptr %31, i32 0, i32 0
  %33 = load ptr, ptr %9, align 8, !tbaa !51
  %34 = getelementptr inbounds nuw %struct.TValue, ptr %33, i32 0, i32 0
  call void @llvm.memcpy.p0.p0.i64(ptr align 8 %32, ptr align 8 %34, i64 8, i1 false), !tbaa.struct !57
  %35 = load ptr, ptr %9, align 8, !tbaa !51
  %36 = getelementptr inbounds nuw %struct.TValue, ptr %35, i32 0, i32 1
  %37 = load i8, ptr %36, align 8, !tbaa !26
  %38 = load ptr, ptr %8, align 8, !tbaa !51
  %39 = getelementptr inbounds nuw %struct.TValue, ptr %38, i32 0, i32 1
  store i8 %37, ptr %39, align 8, !tbaa !26
  call void @llvm.lifetime.end.p0(i64 8, ptr %9) #5
  call void @llvm.lifetime.end.p0(i64 8, ptr %8) #5
  %40 = load ptr, ptr %7, align 8, !tbaa !51
  %41 = load ptr, ptr %5, align 8, !tbaa !23
  %42 = getelementptr inbounds nuw %struct.UpVal, ptr %41, i32 0, i32 3
  store ptr %40, ptr %42, align 8, !tbaa !25
  %43 = load ptr, ptr %5, align 8, !tbaa !23
  %44 = getelementptr inbounds nuw %struct.UpVal, ptr %43, i32 0, i32 2
  %45 = load i8, ptr %44, align 1, !tbaa !29
  %46 = zext i8 %45 to i32
  %47 = and i32 %46, 24
  %48 = icmp ne i32 %47, 0
  br i1 %48, label %88, label %49

49:                                               ; preds = %23
  %50 = load ptr, ptr %5, align 8, !tbaa !23
  %51 = getelementptr inbounds nuw %struct.UpVal, ptr %50, i32 0, i32 2
  %52 = load i8, ptr %51, align 1, !tbaa !29
  %53 = zext i8 %52 to i32
  %54 = or i32 %53, 32
  %55 = trunc i32 %54 to i8
  store i8 %55, ptr %51, align 1, !tbaa !29
  %56 = load ptr, ptr %7, align 8, !tbaa !51
  %57 = getelementptr inbounds nuw %struct.TValue, ptr %56, i32 0, i32 1
  %58 = load i8, ptr %57, align 8, !tbaa !26
  %59 = zext i8 %58 to i32
  %60 = and i32 %59, 64
  %61 = icmp ne i32 %60, 0
  br i1 %61, label %62, label %86

62:                                               ; preds = %49
  %63 = load ptr, ptr %5, align 8, !tbaa !23
  %64 = getelementptr inbounds nuw %struct.UpVal, ptr %63, i32 0, i32 2
  %65 = load i8, ptr %64, align 1, !tbaa !29
  %66 = zext i8 %65 to i32
  %67 = and i32 %66, 32
  %68 = icmp ne i32 %67, 0
  br i1 %68, label %69, label %84

69:                                               ; preds = %62
  %70 = load ptr, ptr %7, align 8, !tbaa !51
  %71 = getelementptr inbounds nuw %struct.TValue, ptr %70, i32 0, i32 0
  %72 = load ptr, ptr %71, align 8, !tbaa !25
  %73 = getelementptr inbounds nuw %struct.GCObject, ptr %72, i32 0, i32 2
  %74 = load i8, ptr %73, align 1, !tbaa !58
  %75 = zext i8 %74 to i32
  %76 = and i32 %75, 24
  %77 = icmp ne i32 %76, 0
  br i1 %77, label %78, label %84

78:                                               ; preds = %69
  %79 = load ptr, ptr %3, align 8, !tbaa !4
  %80 = load ptr, ptr %5, align 8, !tbaa !23
  %81 = load ptr, ptr %7, align 8, !tbaa !51
  %82 = getelementptr inbounds nuw %struct.TValue, ptr %81, i32 0, i32 0
  %83 = load ptr, ptr %82, align 8, !tbaa !25
  call void @luaC_barrier_(ptr noundef %79, ptr noundef %80, ptr noundef %83)
  br label %85

84:                                               ; preds = %69, %62
  br label %85

85:                                               ; preds = %84, %78
  br label %87

86:                                               ; preds = %49
  br label %87

87:                                               ; preds = %86, %85
  br label %88

88:                                               ; preds = %87, %23
  call void @llvm.lifetime.end.p0(i64 8, ptr %7) #5
  br label %10

89:                                               ; preds = %21
  call void @llvm.lifetime.end.p0(i64 8, ptr %6) #5
  call void @llvm.lifetime.end.p0(i64 8, ptr %5) #5
  ret void
}