; Function Attrs: nounwind uwtable
define hidden void @luaF_closeupval(ptr noundef %0, ptr noundef readnone captures(address) %1) local_unnamed_addr #0 {
  %3 = getelementptr inbounds nuw i8, ptr %0, i64 56
  %4 = load ptr, ptr %3, align 8, !tbaa !41
  %.not25 = icmp eq ptr %4, null
  br i1 %.not25, label %.critedge, label %.lr.ph

.lr.ph:                                           ; preds = %2, %32
  %5 = phi ptr [ %33, %32 ], [ %4, %2 ]
  %6 = getelementptr inbounds nuw i8, ptr %5, i64 16
  %7 = load ptr, ptr %6, align 8, !tbaa !16
  %.not21 = icmp ult ptr %7, %1
  br i1 %.not21, label %.critedge, label %8

8:                                                ; preds = %.lr.ph
  %9 = getelementptr inbounds nuw i8, ptr %5, i64 24
  %10 = load ptr, ptr %9, align 8, !tbaa !16
  %11 = getelementptr inbounds nuw i8, ptr %5, i64 32
  %12 = load ptr, ptr %11, align 8, !tbaa !16
  store ptr %10, ptr %12, align 8, !tbaa !14
  %.not.i = icmp eq ptr %10, null
  br i1 %.not.i, label %luaF_unlinkupval.exit, label %13

13:                                               ; preds = %8
  %14 = load ptr, ptr %11, align 8, !tbaa !16
  %15 = getelementptr inbounds nuw i8, ptr %10, i64 32
  store ptr %14, ptr %15, align 8, !tbaa !16
  br label %luaF_unlinkupval.exit

luaF_unlinkupval.exit:                            ; preds = %8, %13
  %16 = load ptr, ptr %6, align 8, !tbaa !16
  %17 = load i64, ptr %16, align 8, !tbaa !16
  store i64 %17, ptr %9, align 8, !tbaa !16
  %18 = getelementptr inbounds nuw i8, ptr %16, i64 8
  %19 = load i8, ptr %18, align 8, !tbaa !17
  store i8 %19, ptr %11, align 8, !tbaa !17
  store ptr %9, ptr %6, align 8, !tbaa !16
  %20 = getelementptr inbounds nuw i8, ptr %5, i64 9
  %21 = load i8, ptr %20, align 1, !tbaa !20
  %22 = and i8 %21, 24
  %.not22 = icmp eq i8 %22, 0
  %23 = inttoptr i64 %17 to ptr
  br i1 %.not22, label %24, label %32

24:                                               ; preds = %luaF_unlinkupval.exit
  %25 = or i8 %21, 32
  store i8 %25, ptr %20, align 1, !tbaa !20
  %26 = and i8 %19, 64
  %.not23 = icmp eq i8 %26, 0
  br i1 %.not23, label %32, label %27

27:                                               ; preds = %24
  %28 = getelementptr inbounds nuw i8, ptr %23, i64 9
  %29 = load i8, ptr %28, align 1, !tbaa !42
  %30 = and i8 %29, 24
  %.not24 = icmp eq i8 %30, 0
  br i1 %.not24, label %32, label %31

31:                                               ; preds = %27
  tail call void @luaC_barrier_(ptr noundef nonnull %0, ptr noundef nonnull %5, ptr noundef nonnull %23) #7
  br label %32

32:                                               ; preds = %27, %31, %24, %luaF_unlinkupval.exit
  %33 = load ptr, ptr %3, align 8, !tbaa !41
  %.not = icmp eq ptr %33, null
  br i1 %.not, label %.critedge, label %.lr.ph

.critedge:                                        ; preds = %.lr.ph, %32, %2
  ret void
}